; Function Attrs: nounwind uwtable
define internal void @makeContextCurrentGLX(ptr noundef %0) #0 {
  %.not = icmp eq ptr %0, null
  %2 = load ptr, ptr getelementptr inbounds nuw (i8, ptr @_glfw, i64 143432), align 8, !tbaa !100
  %3 = load ptr, ptr getelementptr inbounds nuw (i8, ptr @_glfw, i64 137840), align 8, !tbaa !109
  br i1 %.not, label %11, label %4

4:                                                ; preds = %1
  %5 = getelementptr inbounds nuw i8, ptr %0, i64 704
  %6 = getelementptr inbounds nuw i8, ptr %0, i64 712
  %7 = load i64, ptr %6, align 8, !tbaa !178
  %8 = load ptr, ptr %5, align 8, !tbaa !131
  %9 = tail call i32 %2(ptr noundef %3, i64 noundef %7, ptr noundef %8) #4
  %.not5 = icmp eq i32 %9, 0
  br i1 %.not5, label %10, label %14

10:                                               ; preds = %4
  tail call void (i32, ptr, ...) @_glfwInputError(i32 noundef 65544, ptr noundef nonnull @.str.49) #4
  br label %15

11:                                               ; preds = %1
  %12 = tail call i32 %2(ptr noundef %3, i64 noundef 0, ptr noundef null) #4
  %.not4 = icmp eq i32 %12, 0
  br i1 %.not4, label %13, label %14

13:                                               ; preds = %11
  tail call void (i32, ptr, ...) @_glfwInputError(i32 noundef 65544, ptr noundef nonnull @.str.50) #4
  br label %15

14:                                               ; preds = %11, %4
  tail call void @_glfwPlatformSetTls(ptr noundef nonnull getelementptr inbounds nuw (i8, ptr @_glfw, i64 133412), ptr noundef %0) #4
  br label %15

15:                                               ; preds = %14, %13, %10
  ret void
}